; ModuleID = '64/1774.c'
source_filename = "64/1774.c"
target datalayout = "e-m:e-p270:32:32-p271:32:32-p272:64:64-i64:64-f80:128-n8:16:32:64-S128"
target triple = "x86_64-pc-linux-gnu"

@.str = private unnamed_addr constant [3 x i8] c"%d\00", align 1
@.str.1 = private unnamed_addr constant [29 x i8] c"(%d,%d,%d)-(%d,%d,%d)=%.2lf\0A\00", align 1

; Function Attrs: noinline nounwind uwtable
define dso_local i32 @main() #0 {
  %1 = alloca i32, align 4
  %2 = alloca i32, align 4
  %3 = alloca [30 x i32], align 16
  %4 = alloca [45 x i32], align 16
  %5 = alloca [45 x i32], align 16
  %6 = alloca i32, align 4
  %7 = alloca i32, align 4
  %8 = alloca i32, align 4
  %9 = alloca i32, align 4
  %10 = alloca i32, align 4
  %11 = alloca i32, align 4
  %12 = alloca i32, align 4
  %13 = alloca i32, align 4
  %14 = alloca i32, align 4
  %15 = alloca i32, align 4
  %16 = alloca i32, align 4
  %17 = alloca i32, align 4
  %18 = alloca [45 x double], align 16
  %19 = alloca double, align 8
  store i32 0, i32* %1, align 4
  store i32 0, i32* %6, align 4
  %20 = call i32 (i8*, ...) @__isoc99_scanf(i8* getelementptr inbounds ([3 x i8], [3 x i8]* @.str, i64 0, i64 0), i32* %2)
  store i32 0, i32* %10, align 4
  br label %21

21:                                               ; preds = %31, %0
  %22 = load i32, i32* %10, align 4
  %23 = load i32, i32* %2, align 4
  %24 = mul nsw i32 3, %23
  %25 = icmp slt i32 %22, %24
  br i1 %25, label %26, label %34

26:                                               ; preds = %21
  %27 = load i32, i32* %10, align 4
  %28 = sext i32 %27 to i64
  %29 = getelementptr inbounds [30 x i32], [30 x i32]* %3, i64 0, i64 %28
  %30 = call i32 (i8*, ...) @__isoc99_scanf(i8* getelementptr inbounds ([3 x i8], [3 x i8]* @.str, i64 0, i64 0), i32* %29)
  br label %31

31:                                               ; preds = %26
  %32 = load i32, i32* %10, align 4
  %33 = add nsw i32 %32, 1
  store i32 %33, i32* %10, align 4
  br label %21

34:                                               ; preds = %21
  store i32 0, i32* %11, align 4
  br label %35

35:                                               ; preds = %146, %34
  %36 = load i32, i32* %11, align 4
  %37 = load i32, i32* %2, align 4
  %38 = icmp slt i32 %36, %37
  br i1 %38, label %39, label %149

39:                                               ; preds = %35
  %40 = load i32, i32* %11, align 4
  %41 = add nsw i32 %40, 1
  store i32 %41, i32* %12, align 4
  br label %42

42:                                               ; preds = %142, %39
  %43 = load i32, i32* %12, align 4
  %44 = load i32, i32* %2, align 4
  %45 = icmp slt i32 %43, %44
  br i1 %45, label %46, label %145

46:                                               ; preds = %42
  %47 = load i32, i32* %11, align 4
  %48 = load i32, i32* %6, align 4
  %49 = sext i32 %48 to i64
  %50 = getelementptr inbounds [45 x i32], [45 x i32]* %4, i64 0, i64 %49
  store i32 %47, i32* %50, align 4
  %51 = load i32, i32* %12, align 4
  %52 = load i32, i32* %6, align 4
  %53 = sext i32 %52 to i64
  %54 = getelementptr inbounds [45 x i32], [45 x i32]* %5, i64 0, i64 %53
  store i32 %51, i32* %54, align 4
  %55 = load i32, i32* %11, align 4
  %56 = mul nsw i32 3, %55
  %57 = sext i32 %56 to i64
  %58 = getelementptr inbounds [30 x i32], [30 x i32]* %3, i64 0, i64 %57
  %59 = load i32, i32* %58, align 4
  %60 = load i32, i32* %12, align 4
  %61 = mul nsw i32 3, %60
  %62 = sext i32 %61 to i64
  %63 = getelementptr inbounds [30 x i32], [30 x i32]* %3, i64 0, i64 %62
  %64 = load i32, i32* %63, align 4
  %65 = sub nsw i32 %59, %64
  %66 = load i32, i32* %11, align 4
  %67 = mul nsw i32 3, %66
  %68 = sext i32 %67 to i64
  %69 = getelementptr inbounds [30 x i32], [30 x i32]* %3, i64 0, i64 %68
  %70 = load i32, i32* %69, align 4
  %71 = load i32, i32* %12, align 4
  %72 = mul nsw i32 3, %71
  %73 = sext i32 %72 to i64
  %74 = getelementptr inbounds [30 x i32], [30 x i32]* %3, i64 0, i64 %73
  %75 = load i32, i32* %74, align 4
  %76 = sub nsw i32 %70, %75
  %77 = mul nsw i32 %65, %76
  %78 = load i32, i32* %11, align 4
  %79 = mul nsw i32 3, %78
  %80 = add nsw i32 %79, 1
  %81 = sext i32 %80 to i64
  %82 = getelementptr inbounds [30 x i32], [30 x i32]* %3, i64 0, i64 %81
  %83 = load i32, i32* %82, align 4
  %84 = load i32, i32* %12, align 4
  %85 = mul nsw i32 3, %84
  %86 = add nsw i32 %85, 1
  %87 = sext i32 %86 to i64
  %88 = getelementptr inbounds [30 x i32], [30 x i32]* %3, i64 0, i64 %87
  %89 = load i32, i32* %88, align 4
  %90 = sub nsw i32 %83, %89
  %91 = load i32, i32* %11, align 4
  %92 = mul nsw i32 3, %91
  %93 = add nsw i32 %92, 1
  %94 = sext i32 %93 to i64
  %95 = getelementptr inbounds [30 x i32], [30 x i32]* %3, i64 0, i64 %94
  %96 = load i32, i32* %95, align 4
  %97 = load i32, i32* %12, align 4
  %98 = mul nsw i32 3, %97
  %99 = add nsw i32 %98, 1
  %100 = sext i32 %99 to i64
  %101 = getelementptr inbounds [30 x i32], [30 x i32]* %3, i64 0, i64 %100
  %102 = load i32, i32* %101, align 4
  %103 = sub nsw i32 %96, %102
  %104 = mul nsw i32 %90, %103
  %105 = add nsw i32 %77, %104
  %106 = load i32, i32* %11, align 4
  %107 = mul nsw i32 3, %106
  %108 = add nsw i32 %107, 2
  %109 = sext i32 %108 to i64
  %110 = getelementptr inbounds [30 x i32], [30 x i32]* %3, i64 0, i64 %109
  %111 = load i32, i32* %110, align 4
  %112 = load i32, i32* %12, align 4
  %113 = mul nsw i32 3, %112
  %114 = add nsw i32 %113, 2
  %115 = sext i32 %114 to i64
  %116 = getelementptr inbounds [30 x i32], [30 x i32]* %3, i64 0, i64 %115
  %117 = load i32, i32* %116, align 4
  %118 = sub nsw i32 %111, %117
  %119 = load i32, i32* %11, align 4
  %120 = mul nsw i32 3, %119
  %121 = add nsw i32 %120, 2
  %122 = sext i32 %121 to i64
  %123 = getelementptr inbounds [30 x i32], [30 x i32]* %3, i64 0, i64 %122
  %124 = load i32, i32* %123, align 4
  %125 = load i32, i32* %12, align 4
  %126 = mul nsw i32 3, %125
  %127 = add nsw i32 %126, 2
  %128 = sext i32 %127 to i64
  %129 = getelementptr inbounds [30 x i32], [30 x i32]* %3, i64 0, i64 %128
  %130 = load i32, i32* %129, align 4
  %131 = sub nsw i32 %124, %130
  %132 = mul nsw i32 %118, %131
  %133 = add nsw i32 %105, %132
  store i32 %133, i32* %7, align 4
  %134 = load i32, i32* %7, align 4
  %135 = sitofp i32 %134 to double
  %136 = call double @sqrt(double %135) #3
  %137 = load i32, i32* %6, align 4
  %138 = sext i32 %137 to i64
  %139 = getelementptr inbounds [45 x double], [45 x double]* %18, i64 0, i64 %138
  store double %136, double* %139, align 8
  %140 = load i32, i32* %6, align 4
  %141 = add nsw i32 %140, 1
  store i32 %141, i32* %6, align 4
  br label %142

142:                                              ; preds = %46
  %143 = load i32, i32* %12, align 4
  %144 = add nsw i32 %143, 1
  store i32 %144, i32* %12, align 4
  br label %42

145:                                              ; preds = %42
  br label %146

146:                                              ; preds = %145
  %147 = load i32, i32* %11, align 4
  %148 = add nsw i32 %147, 1
  store i32 %148, i32* %11, align 4
  br label %35

149:                                              ; preds = %35
  store i32 1, i32* %13, align 4
  br label %150

150:                                              ; preds = %229, %149
  %151 = load i32, i32* %13, align 4
  %152 = load i32, i32* %6, align 4
  %153 = icmp sle i32 %151, %152
  br i1 %153, label %154, label %232

154:                                              ; preds = %150
  store i32 0, i32* %14, align 4
  br label %155

155:                                              ; preds = %225, %154
  %156 = load i32, i32* %14, align 4
  %157 = load i32, i32* %6, align 4
  %158 = load i32, i32* %13, align 4
  %159 = sub nsw i32 %157, %158
  %160 = icmp slt i32 %156, %159
  br i1 %160, label %161, label %228

161:                                              ; preds = %155
  %162 = load i32, i32* %14, align 4
  %163 = sext i32 %162 to i64
  %164 = getelementptr inbounds [45 x double], [45 x double]* %18, i64 0, i64 %163
  %165 = load double, double* %164, align 8
  %166 = load i32, i32* %14, align 4
  %167 = add nsw i32 %166, 1
  %168 = sext i32 %167 to i64
  %169 = getelementptr inbounds [45 x double], [45 x double]* %18, i64 0, i64 %168
  %170 = load double, double* %169, align 8
  %171 = fcmp olt double %165, %170
  br i1 %171, label %172, label %224

172:                                              ; preds = %161
  %173 = load i32, i32* %14, align 4
  %174 = add nsw i32 %173, 1
  %175 = sext i32 %174 to i64
  %176 = getelementptr inbounds [45 x double], [45 x double]* %18, i64 0, i64 %175
  %177 = load double, double* %176, align 8
  store double %177, double* %19, align 8
  %178 = load i32, i32* %14, align 4
  %179 = sext i32 %178 to i64
  %180 = getelementptr inbounds [45 x double], [45 x double]* %18, i64 0, i64 %179
  %181 = load double, double* %180, align 8
  %182 = load i32, i32* %14, align 4
  %183 = add nsw i32 %182, 1
  %184 = sext i32 %183 to i64
  %185 = getelementptr inbounds [45 x double], [45 x double]* %18, i64 0, i64 %184
  store double %181, double* %185, align 8
  %186 = load double, double* %19, align 8
  %187 = load i32, i32* %14, align 4
  %188 = sext i32 %187 to i64
  %189 = getelementptr inbounds [45 x double], [45 x double]* %18, i64 0, i64 %188
  store double %186, double* %189, align 8
  %190 = load i32, i32* %14, align 4
  %191 = add nsw i32 %190, 1
  %192 = sext i32 %191 to i64
  %193 = getelementptr inbounds [45 x i32], [45 x i32]* %4, i64 0, i64 %192
  %194 = load i32, i32* %193, align 4
  store i32 %194, i32* %8, align 4
  %195 = load i32, i32* %14, align 4
  %196 = sext i32 %195 to i64
  %197 = getelementptr inbounds [45 x i32], [45 x i32]* %4, i64 0, i64 %196
  %198 = load i32, i32* %197, align 4
  %199 = load i32, i32* %14, align 4
  %200 = add nsw i32 %199, 1
  %201 = sext i32 %200 to i64
  %202 = getelementptr inbounds [45 x i32], [45 x i32]* %4, i64 0, i64 %201
  store i32 %198, i32* %202, align 4
  %203 = load i32, i32* %8, align 4
  %204 = load i32, i32* %14, align 4
  %205 = sext i32 %204 to i64
  %206 = getelementptr inbounds [45 x i32], [45 x i32]* %4, i64 0, i64 %205
  store i32 %203, i32* %206, align 4
  %207 = load i32, i32* %14, align 4
  %208 = add nsw i32 %207, 1
  %209 = sext i32 %208 to i64
  %210 = getelementptr inbounds [45 x i32], [45 x i32]* %5, i64 0, i64 %209
  %211 = load i32, i32* %210, align 4
  store i32 %211, i32* %9, align 4
  %212 = load i32, i32* %14, align 4
  %213 = sext i32 %212 to i64
  %214 = getelementptr inbounds [45 x i32], [45 x i32]* %5, i64 0, i64 %213
  %215 = load i32, i32* %214, align 4
  %216 = load i32, i32* %14, align 4
  %217 = add nsw i32 %216, 1
  %218 = sext i32 %217 to i64
  %219 = getelementptr inbounds [45 x i32], [45 x i32]* %5, i64 0, i64 %218
  store i32 %215, i32* %219, align 4
  %220 = load i32, i32* %9, align 4
  %221 = load i32, i32* %14, align 4
  %222 = sext i32 %221 to i64
  %223 = getelementptr inbounds [45 x i32], [45 x i32]* %5, i64 0, i64 %222
  store i32 %220, i32* %223, align 4
  br label %224

224:                                              ; preds = %172, %161
  br label %225

225:                                              ; preds = %224
  %226 = load i32, i32* %14, align 4
  %227 = add nsw i32 %226, 1
  store i32 %227, i32* %14, align 4
  br label %155

228:                                              ; preds = %155
  br label %229

229:                                              ; preds = %228
  %230 = load i32, i32* %13, align 4
  %231 = add nsw i32 %230, 1
  store i32 %231, i32* %13, align 4
  br label %150

232:                                              ; preds = %150
  store i32 0, i32* %15, align 4
  br label %233

233:                                              ; preds = %281, %232
  %234 = load i32, i32* %15, align 4
  %235 = load i32, i32* %6, align 4
  %236 = icmp slt i32 %234, %235
  br i1 %236, label %237, label %284

237:                                              ; preds = %233
  %238 = load i32, i32* %15, align 4
  %239 = sext i32 %238 to i64
  %240 = getelementptr inbounds [45 x i32], [45 x i32]* %4, i64 0, i64 %239
  %241 = load i32, i32* %240, align 4
  %242 = mul nsw i32 3, %241
  store i32 %242, i32* %16, align 4
  %243 = load i32, i32* %15, align 4
  %244 = sext i32 %243 to i64
  %245 = getelementptr inbounds [45 x i32], [45 x i32]* %5, i64 0, i64 %244
  %246 = load i32, i32* %245, align 4
  %247 = mul nsw i32 3, %246
  store i32 %247, i32* %17, align 4
  %248 = load i32, i32* %16, align 4
  %249 = sext i32 %248 to i64
  %250 = getelementptr inbounds [30 x i32], [30 x i32]* %3, i64 0, i64 %249
  %251 = load i32, i32* %250, align 4
  %252 = load i32, i32* %16, align 4
  %253 = add nsw i32 %252, 1
  %254 = sext i32 %253 to i64
  %255 = getelementptr inbounds [30 x i32], [30 x i32]* %3, i64 0, i64 %254
  %256 = load i32, i32* %255, align 4
  %257 = load i32, i32* %16, align 4
  %258 = add nsw i32 %257, 2
  %259 = sext i32 %258 to i64
  %260 = getelementptr inbounds [30 x i32], [30 x i32]* %3, i64 0, i64 %259
  %261 = load i32, i32* %260, align 4
  %262 = load i32, i32* %17, align 4
  %263 = sext i32 %262 to i64
  %264 = getelementptr inbounds [30 x i32], [30 x i32]* %3, i64 0, i64 %263
  %265 = load i32, i32* %264, align 4
  %266 = load i32, i32* %17, align 4
  %267 = add nsw i32 %266, 1
  %268 = sext i32 %267 to i64
  %269 = getelementptr inbounds [30 x i32], [30 x i32]* %3, i64 0, i64 %268
  %270 = load i32, i32* %269, align 4
  %271 = load i32, i32* %17, align 4
  %272 = add nsw i32 %271, 2
  %273 = sext i32 %272 to i64
  %274 = getelementptr inbounds [30 x i32], [30 x i32]* %3, i64 0, i64 %273
  %275 = load i32, i32* %274, align 4
  %276 = load i32, i32* %15, align 4
  %277 = sext i32 %276 to i64
  %278 = getelementptr inbounds [45 x double], [45 x double]* %18, i64 0, i64 %277
  %279 = load double, double* %278, align 8
  %280 = call i32 (i8*, ...) @printf(i8* getelementptr inbounds ([29 x i8], [29 x i8]* @.str.1, i64 0, i64 0), i32 %251, i32 %256, i32 %261, i32 %265, i32 %270, i32 %275, double %279)
  br label %281

281:                                              ; preds = %237
  %282 = load i32, i32* %15, align 4
  %283 = add nsw i32 %282, 1
  store i32 %283, i32* %15, align 4
  br label %233

284:                                              ; preds = %233
  ret i32 0
}

declare dso_local i32 @__isoc99_scanf(i8*, ...) #1

; Function Attrs: nounwind
declare dso_local double @sqrt(double) #2

declare dso_local i32 @printf(i8*, ...) #1


!llvm.module.flags = !{!0}
!llvm.ident = !{!1}

!0 = !{i32 1, !"wchar_size", i32 4}
!1 = !{!"clang version 10.0.0-4ubuntu1 "}
